target datalayout = "e-m:e-p270:32:32-p271:32:32-p272:64:64-i64:64-i128:128-f80:128-n8:16:32:64-S128"
target triple = "x86_64-pc-linux-gnu"

%class.anon.14 = type { ptr }
%"struct.(anonymous namespace)::spec::Call<void ()>::__FT" = type { i8 }

@_ZTISt13runtime_error = external constant ptr

; Function Attrs: mustprogress uwtable
define internal void @"_ZZN35ProxyInvocationTests_TestThrow_Test8TestBodyEvENK3$_0clEv"(ptr noundef nonnull align 8 dereferenceable(8) %0) #4 align 2 personality ptr @__gxx_personality_v0 {
  %2 = alloca ptr, align 8
  %3 = alloca ptr, align 8
  %4 = alloca i32, align 4
  store ptr %0, ptr %2, align 8
  %5 = load ptr, ptr %2, align 8
  %6 = call ptr @__cxa_allocate_exception(i64 16) #3
  %7 = getelementptr inbounds %class.anon.14, ptr %5, i32 0, i32 0
  %8 = load ptr, ptr %7, align 8
  %9 = load ptr, ptr %8, align 8
  invoke void @_ZNSt13runtime_errorC1EPKc(ptr noundef nonnull align 8 dereferenceable(16) %6, ptr noundef %9)
          to label %10 unwind label %11

10:                                               ; preds = %1
  call void @__cxa_throw(ptr %6, ptr @_ZTISt13runtime_error, ptr @_ZNSt13runtime_errorD1Ev) #17
  unreachable

11:                                               ; preds = %1
  %12 = landingpad { ptr, i32 }
          cleanup
  %13 = extractvalue { ptr, i32 } %12, 0
  store ptr %13, ptr %3, align 8
  %14 = extractvalue { ptr, i32 } %12, 1
  store i32 %14, ptr %4, align 4
  call void @__cxa_free_exception(ptr %6) #3
  br label %15

15:                                               ; preds = %11
  %16 = load ptr, ptr %3, align 8
  %17 = load i32, ptr %4, align 4
  %18 = insertvalue { ptr, i32 } poison, ptr %16, 0
  %19 = insertvalue { ptr, i32 } %18, i32 %17, 1
  resume { ptr, i32 } %19
}

; Function Attrs: mustprogress uwtable
define internal void @"_ZSt13__invoke_implIvRZN35ProxyInvocationTests_TestThrow_Test8TestBodyEvE3$_0JEET_St14__invoke_otherOT0_DpOT1_"(ptr noundef nonnull align 8 dereferenceable(8) %0) #4 {
  %2 = alloca ptr, align 8
  store ptr %0, ptr %2, align 8
  %3 = load ptr, ptr %2, align 8
  call void @"_ZZN35ProxyInvocationTests_TestThrow_Test8TestBodyEvENK3$_0clEv"(ptr noundef nonnull align 8 dereferenceable(8) %3)
  ret void
}

; Function Attrs: mustprogress uwtable
define internal void @"_ZSt8__invokeIRZN35ProxyInvocationTests_TestThrow_Test8TestBodyEvE3$_0JEENSt15__invoke_resultIT_JDpT0_EE4typeEOS4_DpOS5_"(ptr noundef nonnull align 8 dereferenceable(8) %0) #4 {
  %2 = alloca ptr, align 8
  store ptr %0, ptr %2, align 8
  %3 = load ptr, ptr %2, align 8
  call void @"_ZSt13__invoke_implIvRZN35ProxyInvocationTests_TestThrow_Test8TestBodyEvE3$_0JEET_St14__invoke_otherOT0_DpOT1_"(ptr noundef nonnull align 8 dereferenceable(8) %3)
  ret void
}

; Function Attrs: mustprogress uwtable
define internal void @"_ZSt6invokeIRZN35ProxyInvocationTests_TestThrow_Test8TestBodyEvE3$_0JEENSt13invoke_resultIT_JDpT0_EE4typeEOS4_DpOS5_"(ptr noundef nonnull align 8 dereferenceable(8) %0) #4 {
  %2 = alloca ptr, align 8
  store ptr %0, ptr %2, align 8
  %3 = load ptr, ptr %2, align 8
  call void @"_ZSt8__invokeIRZN35ProxyInvocationTests_TestThrow_Test8TestBodyEvE3$_0JEENSt15__invoke_resultIT_JDpT0_EE4typeEOS4_DpOS5_"(ptr noundef nonnull align 8 dereferenceable(8) %3)
  ret void
}

; Function Attrs: mustprogress uwtable
define internal void @"_ZN12_GLOBAL__N_14spec4CallIJFvvEEE4__FTclIZN35ProxyInvocationTests_TestThrow_Test8TestBodyEvE3$_0JEEEDcRT_DpOT0_QrqXclsr3stdE6invokefp_spclgssr3stdE7forwardITL0_0_Efp0_EEE"(ptr noundef nonnull align 1 dereferenceable(1) %0, ptr noundef nonnull align 8 dereferenceable(8) %1) #4 align 2 {
  %3 = alloca ptr, align 8
  %4 = alloca ptr, align 8
  store ptr %0, ptr %3, align 8
  store ptr %1, ptr %4, align 8
  %5 = load ptr, ptr %4, align 8
  call void @"_ZSt6invokeIRZN35ProxyInvocationTests_TestThrow_Test8TestBodyEvE3$_0JEENSt13invoke_resultIT_JDpT0_EE4typeEOS4_DpOS5_"(ptr noundef nonnull align 8 dereferenceable(8) %5)
  ret void
}

; Function Attrs: mustprogress uwtable
define internal void @"_ZN3pro7details15invoke_dispatchIN12_GLOBAL__N_14spec4CallIJFvvEEE4__FTEvJRZN35ProxyInvocationTests_TestThrow_Test8TestBodyEvE3$_0EEET0_DpOT1_"(ptr noundef nonnull align 8 dereferenceable(8) %0) #4 {
  %2 = alloca ptr, align 8
  %3 = alloca %"struct.(anonymous namespace)::spec::Call<void ()>::__FT", align 1
  store ptr %0, ptr %2, align 8
  %4 = load ptr, ptr %2, align 8
  call void @"_ZN12_GLOBAL__N_14spec4CallIJFvvEEE4__FTclIZN35ProxyInvocationTests_TestThrow_Test8TestBodyEvE3$_0JEEEDcRT_DpOT0_QrqXclsr3stdE6invokefp_spclgssr3stdE7forwardITL0_0_Efp0_EEE"(ptr noundef nonnull align 1 dereferenceable(1) %3, ptr noundef nonnull align 8 dereferenceable(8) %4)
  ret void
}

; Function Attrs: mustprogress nounwind uwtable
define internal noundef nonnull align 8 dereferenceable(8) ptr @"_ZN3pro7details10ptr_traitsIPZN35ProxyInvocationTests_TestThrow_Test8TestBodyEvE3$_0E11dereferenceES4_"(ptr noundef %0) #7 align 2 {
  %2 = alloca ptr, align 8
  store ptr %0, ptr %2, align 8
  %3 = load ptr, ptr %2, align 8
  ret ptr %3
}

; Function Attrs: mustprogress nounwind uwtable
define internal noundef ptr @"_ZSt7launderIKPZN35ProxyInvocationTests_TestThrow_Test8TestBodyEvE3$_0EPT_S5_"(ptr noundef %0) #7 {
  %2 = alloca ptr, align 8
  store ptr %0, ptr %2, align 8
  %3 = load ptr, ptr %2, align 8
  ret ptr %3
}

; Function Attrs: mustprogress uwtable
define internal void @"_ZN3pro7details25invocation_dispatcher_refIPZN35ProxyInvocationTests_TestThrow_Test8TestBodyEvE3$_0N12_GLOBAL__N_14spec4CallIJFvvEEE4__FTEvJEEET1_PKSt4byteDpT2_"(ptr noundef %0) #4 {
  %2 = alloca ptr, align 8
  store ptr %0, ptr %2, align 8
  %3 = load ptr, ptr %2, align 8
  %4 = call noundef ptr @"_ZSt7launderIKPZN35ProxyInvocationTests_TestThrow_Test8TestBodyEvE3$_0EPT_S5_"(ptr noundef %3) #3
  %5 = load ptr, ptr %4, align 8
  %6 = call noundef nonnull align 8 dereferenceable(8) ptr @"_ZN3pro7details10ptr_traitsIPZN35ProxyInvocationTests_TestThrow_Test8TestBodyEvE3$_0E11dereferenceES4_"(ptr noundef %5) #3
  call void @"_ZN3pro7details15invoke_dispatchIN12_GLOBAL__N_14spec4CallIJFvvEEE4__FTEvJRZN35ProxyInvocationTests_TestThrow_Test8TestBodyEvE3$_0EEET0_DpOT1_"(ptr noundef nonnull align 8 dereferenceable(8) %6)
  ret void
}