; Function Attrs: mustprogress noreturn uwtable
define internal void @"_ZN3pro7details25invocation_dispatcher_refIPZN35ProxyInvocationTests_TestThrow_Test8TestBodyEvE3$_0N12_GLOBAL__N_14spec4CallIJFvvEEE4__FTEvJEEET1_PKSt4byteDpT2_"(ptr nocapture noundef readonly %0) #15 personality ptr @__gxx_personality_v0 {
  %2 = load ptr, ptr %0, align 8
  %3 = tail call ptr @__cxa_allocate_exception(i64 16) #25
  %4 = load ptr, ptr %2, align 8
  %5 = load ptr, ptr %4, align 8
  invoke void @_ZNSt13runtime_errorC1EPKc(ptr noundef nonnull align 8 dereferenceable(16) %3, ptr noundef %5)
          to label %6 unwind label %7

6:                                                ; preds = %1
  tail call void @__cxa_throw(ptr nonnull %3, ptr nonnull @_ZTISt13runtime_error, ptr nonnull @_ZNSt13runtime_errorD1Ev) #26
  unreachable

7:                                                ; preds = %1
  %8 = landingpad { ptr, i32 }
          cleanup
  tail call void @__cxa_free_exception(ptr %3) #25
  resume { ptr, i32 } %8
}